target datalayout = "e-m:e-p270:32:32-p271:32:32-p272:64:64-i64:64-i128:128-f80:128-n8:16:32:64-S128"
target triple = "x86_64-pc-linux-gnu"

%struct.Curl_ssl = type { %struct.curl_ssl_backend, i32, i64, ptr, ptr, ptr, ptr, ptr, ptr, ptr, ptr, ptr, ptr, ptr, ptr, ptr, ptr, ptr, ptr, ptr, ptr, ptr, ptr, ptr, ptr, ptr, ptr, ptr }
%struct.curl_ssl_backend = type { i32, ptr }

@Curl_ssl = dso_local global ptr @Curl_ssl_openssl, align 8
@init_ssl = internal global i8 0, align 1

; Function Attrs: nounwind uwtable
define dso_local i32 @Curl_ssl_init() #0 {
  %1 = alloca i32, align 4
  %2 = load i8, ptr @init_ssl, align 1
  %3 = trunc i8 %2 to i1
  br i1 %3, label %4, label %5

4:                                                ; preds = %0
  store i32 1, ptr %1, align 4
  br label %10

5:                                                ; preds = %0
  store i8 1, ptr @init_ssl, align 1
  %6 = load ptr, ptr @Curl_ssl, align 8
  %7 = getelementptr inbounds %struct.Curl_ssl, ptr %6, i32 0, i32 3
  %8 = load ptr, ptr %7, align 8
  %9 = call i32 %8()
  store i32 %9, ptr %1, align 4
  br label %10

10:                                               ; preds = %5, %4
  %11 = load i32, ptr %1, align 4
  ret i32 %11
}