; Function Attrs: nounwind uwtable
define dso_local i32 @Curl_ssl_init() local_unnamed_addr #2 {
  %.b1 = load i1, ptr @init_ssl, align 1
  br i1 %.b1, label %6, label %1

1:                                                ; preds = %0
  store i1 true, ptr @init_ssl, align 1
  %2 = load ptr, ptr @Curl_ssl, align 8
  %3 = getelementptr inbounds nuw i8, ptr %2, i64 32
  %4 = load ptr, ptr %3, align 8
  %5 = tail call i32 %4() #18
  br label %6

6:                                                ; preds = %0, %1
  %.0 = phi i32 [ %5, %1 ], [ 1, %0 ]
  ret i32 %.0
}